; Function Attrs: nounwind uwtable
define dso_local range(i32 0, 2) i32 @pubsubSubscribePattern(ptr noundef %0, ptr noundef %1) local_unnamed_addr #2 {
  %3 = getelementptr inbounds nuw i8, ptr %0, i64 576
  %4 = load ptr, ptr %3, align 8, !tbaa !29
  %5 = tail call i32 @dictAdd(ptr noundef %4, ptr noundef %1, ptr noundef null) #9
  %6 = icmp eq i32 %5, 0
  br i1 %6, label %7, label %20

7:                                                ; preds = %2
  tail call void @incrRefCount(ptr noundef %1) #9
  %8 = load ptr, ptr getelementptr inbounds nuw (i8, ptr @server, i64 7856), align 8, !tbaa !64
  %9 = tail call ptr @dictFind(ptr noundef %8, ptr noundef %1) #9
  %10 = icmp eq ptr %9, null
  br i1 %10, label %11, label %15

11:                                               ; preds = %7
  %12 = tail call ptr @dictCreate(ptr noundef nonnull @clientDictType) #9
  %13 = load ptr, ptr getelementptr inbounds nuw (i8, ptr @server, i64 7856), align 8, !tbaa !64
  %14 = tail call i32 @dictAdd(ptr noundef %13, ptr noundef %1, ptr noundef %12) #9
  tail call void @incrRefCount(ptr noundef %1) #9
  br label %17

15:                                               ; preds = %7
  %16 = tail call ptr @dictGetVal(ptr noundef nonnull %9) #9
  br label %17

17:                                               ; preds = %15, %11
  %.013 = phi ptr [ %12, %11 ], [ %16, %15 ]
  %18 = tail call i32 @dictAdd(ptr noundef %.013, ptr noundef nonnull %0, ptr noundef null) #9
  %.not = icmp eq i32 %18, 1
  br i1 %.not, label %19, label %20, !prof !74

19:                                               ; preds = %17
  tail call void @_serverAssert(ptr noundef nonnull @.str, ptr noundef nonnull @.str.1, i32 noundef 357) #9
  tail call void @abort() #10
  unreachable

20:                                               ; preds = %17, %2
  %.0 = phi i32 [ 1, %17 ], [ 0, %2 ]
  tail call void @addReplyPubsubPatSubscribed(ptr noundef nonnull %0, ptr noundef %1)
  ret i32 %.0
}